; Function Attrs: null_pointer_is_valid sspstrong uwtable
define void @epan_free(ptr noundef %0) local_unnamed_addr #6 {
  %.not = icmp eq ptr %0, null
  br i1 %.not, label %3, label %2

2:                                                ; preds = %1
  tail call void @cleanup_dissection()
  tail call void @g_slice_free1(i64 noundef 40, ptr noundef nonnull %0)
  br label %3

3:                                                ; preds = %2, %1
  ret void
}